(dp0
S'brevets'
p1
(lp2
(dp3
Vdocument-id
p4
(dp5
Vcountry
p6
(dp7
V$
p8
VWO
p9
ssVkind
p10
(dp11
g8
VA1
p12
ssV@document-id-type
p13
Vdocdb
p14
sVdoc-number
p15
(dp16
g8
V2011015115
p17
sssV@family-id
p18
V43543927
p19
sV@system
p20
Vops.epo.org
p21
sa(dp22
Vdocument-id
p23
(dp24
Vcountry
p25
(dp26
g8
VCA
p27
ssVkind
p28
(dp29
g8
VA1
p30
ssV@document-id-type
p31
Vdocdb
p32
sVdoc-number
p33
(dp34
g8
V2694840
p35
sssV@family-id
p36
V39148594
p37
sV@system
p38
Vops.epo.org
p39
sa(dp40
Vdocument-id
p41
(dp42
Vcountry
p43
(dp44
g8
VWO
p45
ssVkind
p46
(dp47
g8
VA1
p48
ssV@document-id-type
p49
Vdocdb
p50
sVdoc-number
p51
(dp52
g8
V2007108663
p53
sssV@family-id
p54
V38522658
p55
sV@system
p56
Vops.epo.org
p57
sa(dp58
Vdocument-id
p59
(dp60
Vcountry
p61
(dp62
g8
VWO
p63
ssVkind
p64
(dp65
g8
VA1
p66
ssV@document-id-type
p67
Vdocdb
p68
sVdoc-number
p69
(dp70
g8
V2007091771
p71
sssV@family-id
p72
V38345342
p73
sV@system
p74
Vops.epo.org
p75
sa(dp76
Vdocument-id
p77
(dp78
Vcountry
p79
(dp80
g8
VWO
p81
ssVkind
p82
(dp83
g8
VA1
p84
ssV@document-id-type
p85
Vdocdb
p86
sVdoc-number
p87
(dp88
g8
V2007091761
p89
sssV@family-id
p90
V38345339
p91
sV@system
p92
Vops.epo.org
p93
sa(dp94
Vdocument-id
p95
(dp96
Vcountry
p97
(dp98
g8
VCH
p99
ssVkind
p100
(dp101
g8
VA5
p102
ssV@document-id-type
p103
Vdocdb
p104
sVdoc-number
p105
(dp106
g8
V681276
p107
sssV@family-id
p108
V4218397
p109
sV@system
p110
Vops.epo.org
p111
sa(dp112
Vdocument-id
p113
(dp114
Vcountry
p115
(dp116
g8
VCA
p117
ssVkind
p118
(dp119
g8
VC
p120
ssV@document-id-type
p121
Vdocdb
p122
sVdoc-number
p123
(dp124
g8
V1298439
p125
sssV@family-id
p126
V9354049
p127
sV@system
p128
Vops.epo.org
p129
sa(dp130
Vdocument-id
p131
(dp132
Vcountry
p133
(dp134
g8
VCA
p135
ssVkind
p136
(dp137
g8
g120
ssV@document-id-type
p138
Vdocdb
p139
sVdoc-number
p140
(dp141
g8
V1287993
p142
sssV@family-id
p143
V9352947
p144
sV@system
p145
Vops.epo.org
p146
sa(dp147
Vdocument-id
p148
(dp149
Vcountry
p150
(dp151
g8
VCA
p152
ssVkind
p153
(dp154
g8
VA
p155
ssV@document-id-type
p156
Vdocdb
p157
sVdoc-number
p158
(dp159
g8
V1256700
p160
sssV@family-id
p161
V9315856
p162
sV@system
p163
Vops.epo.org
p164
sa(dp165
Vdocument-id
p166
(dp167
Vcountry
p168
(dp169
g8
VCA
p170
ssVkind
p171
(dp172
g8
g155
ssV@document-id-type
p173
Vdocdb
p174
sVdoc-number
p175
(dp176
g8
V989177
p177
sssV@family-id
p178
V9098733
p179
sV@system
p180
Vops.epo.org
p181
sa(dp182
Vdocument-id
p183
(dp184
Vcountry
p185
(dp186
g8
VCA
p187
ssVkind
p188
(dp189
g8
g155
ssV@document-id-type
p190
Vdocdb
p191
sVdoc-number
p192
(dp193
g8
V931760
p194
sssV@family-id
p195
V9049434
p196
sV@system
p197
Vops.epo.org
p198
sasS'requete'
p199
S'TA=Lentille'
p200
sS'number'
p201
I11
s.